target datalayout = "e-m:e-p270:32:32-p271:32:32-p272:64:64-i64:64-i128:128-f80:128-n8:16:32:64-S128"
target triple = "x86_64-pc-linux-gnu"

@.str.1 = private unnamed_addr constant [34 x i8] c"../openssl/crypto/conf/conf_mod.c\00", align 1
@__func__.CONF_parse_list = private unnamed_addr constant [16 x i8] c"CONF_parse_list\00", align 1

; Function Attrs: nounwind uwtable
define i32 @CONF_parse_list(ptr noundef %0, i32 noundef %1, i32 noundef %2, ptr noundef %3, ptr noundef %4) #0 {
  %6 = alloca i32, align 4
  %7 = alloca ptr, align 8
  %8 = alloca i32, align 4
  %9 = alloca i32, align 4
  %10 = alloca ptr, align 8
  %11 = alloca ptr, align 8
  %12 = alloca i32, align 4
  %13 = alloca ptr, align 8
  %14 = alloca ptr, align 8
  %15 = alloca ptr, align 8
  %16 = alloca i32, align 4
  store ptr %0, ptr %7, align 8, !tbaa !8
  store i32 %1, ptr %8, align 4, !tbaa !14
  store i32 %2, ptr %9, align 4, !tbaa !14
  store ptr %3, ptr %10, align 8, !tbaa !16
  store ptr %4, ptr %11, align 8, !tbaa !16
  call void @llvm.lifetime.start.p0(i64 4, ptr %12) #6
  call void @llvm.lifetime.start.p0(i64 8, ptr %13) #6
  call void @llvm.lifetime.start.p0(i64 8, ptr %14) #6
  call void @llvm.lifetime.start.p0(i64 8, ptr %15) #6
  %17 = load ptr, ptr %7, align 8, !tbaa !8
  %18 = icmp eq ptr %17, null
  br i1 %18, label %19, label %20

19:                                               ; preds = %5
  call void @ERR_new()
  call void @ERR_set_debug(ptr noundef @.str.1, i32 noundef 735, ptr noundef @__func__.CONF_parse_list)
  call void (i32, i32, ptr, ...) @ERR_set_error(i32 noundef 14, i32 noundef 115, ptr noundef null)
  store i32 0, ptr %6, align 4
  store i32 1, ptr %16, align 4
  br label %121

20:                                               ; preds = %5
  %21 = load ptr, ptr %7, align 8, !tbaa !8
  store ptr %21, ptr %13, align 8, !tbaa !8
  br label %22

22:                                               ; preds = %118, %20
  %23 = load i32, ptr %9, align 4, !tbaa !14
  %24 = icmp ne i32 %23, 0
  br i1 %24, label %25, label %49

25:                                               ; preds = %22
  br label %26

26:                                               ; preds = %45, %25
  %27 = load ptr, ptr %13, align 8, !tbaa !8
  %28 = load i8, ptr %27, align 1, !tbaa !30
  %29 = sext i8 %28 to i32
  %30 = icmp ne i32 %29, 0
  br i1 %30, label %31, label %43

31:                                               ; preds = %26
  %32 = call ptr @__ctype_b_loc() #8
  %33 = load ptr, ptr %32, align 8, !tbaa !56
  %34 = load ptr, ptr %13, align 8, !tbaa !8
  %35 = load i8, ptr %34, align 1, !tbaa !30
  %36 = zext i8 %35 to i32
  %37 = sext i32 %36 to i64
  %38 = getelementptr inbounds i16, ptr %33, i64 %37
  %39 = load i16, ptr %38, align 2, !tbaa !58
  %40 = zext i16 %39 to i32
  %41 = and i32 %40, 8192
  %42 = icmp ne i32 %41, 0
  br label %43

43:                                               ; preds = %31, %26
  %44 = phi i1 [ false, %26 ], [ %42, %31 ]
  br i1 %44, label %45, label %48

45:                                               ; preds = %43
  %46 = load ptr, ptr %13, align 8, !tbaa !8
  %47 = getelementptr inbounds nuw i8, ptr %46, i32 1
  store ptr %47, ptr %13, align 8, !tbaa !8
  br label %26, !llvm.loop !60

48:                                               ; preds = %43
  br label %49

49:                                               ; preds = %48, %22
  %50 = load ptr, ptr %13, align 8, !tbaa !8
  %51 = load i32, ptr %8, align 4, !tbaa !14
  %52 = call ptr @strchr(ptr noundef %50, i32 noundef %51) #7
  store ptr %52, ptr %15, align 8, !tbaa !8
  %53 = load ptr, ptr %15, align 8, !tbaa !8
  %54 = load ptr, ptr %13, align 8, !tbaa !8
  %55 = icmp eq ptr %53, %54
  br i1 %55, label %61, label %56

56:                                               ; preds = %49
  %57 = load ptr, ptr %13, align 8, !tbaa !8
  %58 = load i8, ptr %57, align 1, !tbaa !30
  %59 = sext i8 %58 to i32
  %60 = icmp eq i32 %59, 0
  br i1 %60, label %61, label %65

61:                                               ; preds = %56, %49
  %62 = load ptr, ptr %10, align 8, !tbaa !16
  %63 = load ptr, ptr %11, align 8, !tbaa !16
  %64 = call i32 %62(ptr noundef null, i32 noundef 0, ptr noundef %63)
  store i32 %64, ptr %12, align 4, !tbaa !14
  br label %109

65:                                               ; preds = %56
  %66 = load ptr, ptr %15, align 8, !tbaa !8
  %67 = icmp ne ptr %66, null
  br i1 %67, label %68, label %71

68:                                               ; preds = %65
  %69 = load ptr, ptr %15, align 8, !tbaa !8
  %70 = getelementptr inbounds i8, ptr %69, i64 -1
  store ptr %70, ptr %14, align 8, !tbaa !8
  br label %77

71:                                               ; preds = %65
  %72 = load ptr, ptr %13, align 8, !tbaa !8
  %73 = load ptr, ptr %13, align 8, !tbaa !8
  %74 = call i64 @strlen(ptr noundef %73) #7
  %75 = getelementptr inbounds nuw i8, ptr %72, i64 %74
  %76 = getelementptr inbounds i8, ptr %75, i64 -1
  store ptr %76, ptr %14, align 8, !tbaa !8
  br label %77

77:                                               ; preds = %71, %68
  %78 = load i32, ptr %9, align 4, !tbaa !14
  %79 = icmp ne i32 %78, 0
  br i1 %79, label %80, label %97

80:                                               ; preds = %77
  br label %81

81:                                               ; preds = %93, %80
  %82 = call ptr @__ctype_b_loc() #8
  %83 = load ptr, ptr %82, align 8, !tbaa !56
  %84 = load ptr, ptr %14, align 8, !tbaa !8
  %85 = load i8, ptr %84, align 1, !tbaa !30
  %86 = zext i8 %85 to i32
  %87 = sext i32 %86 to i64
  %88 = getelementptr inbounds i16, ptr %83, i64 %87
  %89 = load i16, ptr %88, align 2, !tbaa !58
  %90 = zext i16 %89 to i32
  %91 = and i32 %90, 8192
  %92 = icmp ne i32 %91, 0
  br i1 %92, label %93, label %96

93:                                               ; preds = %81
  %94 = load ptr, ptr %14, align 8, !tbaa !8
  %95 = getelementptr inbounds i8, ptr %94, i32 -1
  store ptr %95, ptr %14, align 8, !tbaa !8
  br label %81, !llvm.loop !61

96:                                               ; preds = %81
  br label %97

97:                                               ; preds = %96, %77
  %98 = load ptr, ptr %10, align 8, !tbaa !16
  %99 = load ptr, ptr %13, align 8, !tbaa !8
  %100 = load ptr, ptr %14, align 8, !tbaa !8
  %101 = load ptr, ptr %13, align 8, !tbaa !8
  %102 = ptrtoint ptr %100 to i64
  %103 = ptrtoint ptr %101 to i64
  %104 = sub i64 %102, %103
  %105 = add nsw i64 %104, 1
  %106 = trunc i64 %105 to i32
  %107 = load ptr, ptr %11, align 8, !tbaa !16
  %108 = call i32 %98(ptr noundef %99, i32 noundef %106, ptr noundef %107)
  store i32 %108, ptr %12, align 4, !tbaa !14
  br label %109

109:                                              ; preds = %97, %61
  %110 = load i32, ptr %12, align 4, !tbaa !14
  %111 = icmp sle i32 %110, 0
  br i1 %111, label %112, label %114

112:                                              ; preds = %109
  %113 = load i32, ptr %12, align 4, !tbaa !14
  store i32 %113, ptr %6, align 4
  store i32 1, ptr %16, align 4
  br label %121

114:                                              ; preds = %109
  %115 = load ptr, ptr %15, align 8, !tbaa !8
  %116 = icmp eq ptr %115, null
  br i1 %116, label %117, label %118

117:                                              ; preds = %114
  store i32 1, ptr %6, align 4
  store i32 1, ptr %16, align 4
  br label %121

118:                                              ; preds = %114
  %119 = load ptr, ptr %15, align 8, !tbaa !8
  %120 = getelementptr inbounds i8, ptr %119, i64 1
  store ptr %120, ptr %13, align 8, !tbaa !8
  br label %22

121:                                              ; preds = %117, %112, %19
  call void @llvm.lifetime.end.p0(i64 8, ptr %15) #6
  call void @llvm.lifetime.end.p0(i64 8, ptr %14) #6
  call void @llvm.lifetime.end.p0(i64 8, ptr %13) #6
  call void @llvm.lifetime.end.p0(i64 4, ptr %12) #6
  %122 = load i32, ptr %6, align 4
  ret i32 %122
}